target datalayout = "e-m:e-p270:32:32-p271:32:32-p272:64:64-i64:64-i128:128-f80:128-n8:16:32:64-S128"
target triple = "x86_64-pc-linux-gnu"

%struct.AVTextFormatContext = type { ptr, ptr, ptr, ptr, ptr, ptr, i32, i32, [12 x i32], [12 x [100 x i32]], [12 x ptr], [12 x %struct.AVBPrint], i32, i32, i32, i32, i32, ptr, i32, ptr, i32 }
%struct.AVBPrint = type { ptr, i32, i32, i32, [1 x i8], [1000 x i8] }
%struct.AVTextWriterContext = type { ptr, ptr, ptr, ptr }
%struct.AVTextWriter = type { ptr, i32, ptr, ptr, ptr, ptr, ptr, ptr }
%struct.__va_list_tag = type { i32, i32, ptr, ptr }

; Function Attrs: inlinehint nounwind uwtable
define internal void @writer_printf(ptr noundef %0, ptr noundef %1, ...) #3 {
  %3 = alloca ptr, align 8
  %4 = alloca ptr, align 8
  %5 = alloca [1 x %struct.__va_list_tag], align 16
  store ptr %0, ptr %3, align 8, !tbaa !4
  store ptr %1, ptr %4, align 8, !tbaa !35
  call void @llvm.lifetime.start.p0(i64 24, ptr %5) #8
  %6 = getelementptr inbounds [1 x %struct.__va_list_tag], ptr %5, i64 0, i64 0
  call void @llvm.va_start.p0(ptr %6)
  %7 = load ptr, ptr %3, align 8, !tbaa !4
  %8 = getelementptr inbounds nuw %struct.AVTextFormatContext, ptr %7, i32 0, i32 2
  %9 = load ptr, ptr %8, align 8, !tbaa !69
  %10 = getelementptr inbounds nuw %struct.AVTextWriterContext, ptr %9, i32 0, i32 1
  %11 = load ptr, ptr %10, align 8, !tbaa !70
  %12 = getelementptr inbounds nuw %struct.AVTextWriter, ptr %11, i32 0, i32 7
  %13 = load ptr, ptr %12, align 8, !tbaa !76
  %14 = load ptr, ptr %3, align 8, !tbaa !4
  %15 = getelementptr inbounds nuw %struct.AVTextFormatContext, ptr %14, i32 0, i32 2
  %16 = load ptr, ptr %15, align 8, !tbaa !69
  %17 = load ptr, ptr %4, align 8, !tbaa !35
  %18 = getelementptr inbounds [1 x %struct.__va_list_tag], ptr %5, i64 0, i64 0
  call void %13(ptr noundef %16, ptr noundef %17, ptr noundef %18)
  %19 = getelementptr inbounds [1 x %struct.__va_list_tag], ptr %5, i64 0, i64 0
  call void @llvm.va_end.p0(ptr %19)
  call void @llvm.lifetime.end.p0(i64 24, ptr %5) #8
  ret void
}